; Function Attrs: mustprogress uwtable
define internal void @_ZN12_GLOBAL__N_135grpc_alts_server_security_connector15add_handshakersERKN9grpc_core11ChannelArgsEP16grpc_pollset_setPNS1_16HandshakeManagerE(ptr noundef nonnull align 8 dereferenceable(40) %this, ptr noundef nonnull align 8 dereferenceable(8) %args, ptr noundef %interested_parties, ptr noundef %handshake_manager) unnamed_addr #3 align 2 personality ptr @__gxx_personality_v0 {
entry:
  %handshaker = alloca ptr, align 8
  %agg.tmp13 = alloca %"class.grpc_core::RefCountedPtr.45", align 8
  store ptr null, ptr %handshaker, align 8
  %server_creds_.i = getelementptr inbounds i8, ptr %this, i64 32
  %0 = load ptr, ptr %server_creds_.i, align 8
  %call4 = tail call i64 @_ZNK9grpc_core11ChannelArgs6GetIntESt17basic_string_viewIcSt11char_traitsIcEE(ptr noundef nonnull align 8 dereferenceable(8) %args, i64 23, ptr nonnull @.str.26)
  %ref.tmp3.sroa.0.0.extract.trunc = trunc i64 %call4 to i32
  %1 = and i64 %call4, 4294967296
  %tobool.i.not.i = icmp eq i64 %1, 0
  %2 = tail call i32 @llvm.smax.i32(i32 %ref.tmp3.sroa.0.0.extract.trunc, i32 0)
  %3 = zext nneg i32 %2 to i64
  %conv = select i1 %tobool.i.not.i, i64 0, i64 %3
  %options_.i = getelementptr inbounds i8, ptr %0, i64 40
  %4 = load ptr, ptr %options_.i, align 8
  %handshaker_service_url_.i = getelementptr inbounds i8, ptr %0, i64 48
  %5 = load ptr, ptr %handshaker_service_url_.i, align 8
  %call11 = call noundef i32 @_Z26alts_tsi_handshaker_createPK29grpc_alts_credentials_optionsPKcS3_bP16grpc_pollset_setPP14tsi_handshakerm(ptr noundef %4, ptr noundef null, ptr noundef %5, i1 noundef zeroext false, ptr noundef %interested_parties, ptr noundef nonnull %handshaker, i64 noundef %conv)
  %cmp.not = icmp eq i32 %call11, 0
  br i1 %cmp.not, label %do.end, label %if.then

if.then:                                          ; preds = %entry
  call void @gpr_assertion_failed(ptr noundef nonnull @.str, i32 noundef 163, ptr noundef nonnull @.str.28) #20
  unreachable

do.end:                                           ; preds = %entry
  %6 = load ptr, ptr %handshaker, align 8
  call void @_ZN9grpc_core24SecurityHandshakerCreateEP14tsi_handshakerP23grpc_security_connectorRKNS_11ChannelArgsE(ptr nonnull sret(%"class.grpc_core::RefCountedPtr.45") align 8 %agg.tmp13, ptr noundef %6, ptr noundef nonnull %this, ptr noundef nonnull align 8 dereferenceable(8) %args)
  invoke void @_ZN9grpc_core16HandshakeManager3AddENS_13RefCountedPtrINS_10HandshakerEEE(ptr noundef nonnull align 8 dereferenceable(216) %handshake_manager, ptr noundef nonnull %agg.tmp13)
          to label %invoke.cont unwind label %lpad

invoke.cont:                                      ; preds = %do.end
  %7 = load ptr, ptr %agg.tmp13, align 8
  %cmp.not.i = icmp eq ptr %7, null
  br i1 %cmp.not.i, label %_ZN9grpc_core13RefCountedPtrINS_10HandshakerEED2Ev.exit, label %if.then.i

if.then.i:                                        ; preds = %invoke.cont
  %refs_.i.i = getelementptr inbounds i8, ptr %7, i64 8
  %8 = atomicrmw sub ptr %refs_.i.i, i64 1 acq_rel, align 8
  %cmp.i.i.i = icmp eq i64 %8, 1
  br i1 %cmp.i.i.i, label %if.then.i.i, label %_ZN9grpc_core13RefCountedPtrINS_10HandshakerEED2Ev.exit

if.then.i.i:                                      ; preds = %if.then.i
  %vtable.i.i.i = load ptr, ptr %7, align 8
  %vfn.i.i.i = getelementptr inbounds i8, ptr %vtable.i.i.i, i64 8
  %9 = load ptr, ptr %vfn.i.i.i, align 8
  call void %9(ptr noundef nonnull align 8 dereferenceable(16) %7) #21
  br label %_ZN9grpc_core13RefCountedPtrINS_10HandshakerEED2Ev.exit

_ZN9grpc_core13RefCountedPtrINS_10HandshakerEED2Ev.exit: ; preds = %invoke.cont, %if.then.i, %if.then.i.i
  ret void

lpad:                                             ; preds = %do.end
  %10 = landingpad { ptr, i32 }
          cleanup
  %11 = load ptr, ptr %agg.tmp13, align 8
  %cmp.not.i3 = icmp eq ptr %11, null
  br i1 %cmp.not.i3, label %_ZN9grpc_core13RefCountedPtrINS_10HandshakerEED2Ev.exit10, label %if.then.i4

if.then.i4:                                       ; preds = %lpad
  %refs_.i.i5 = getelementptr inbounds i8, ptr %11, i64 8
  %12 = atomicrmw sub ptr %refs_.i.i5, i64 1 acq_rel, align 8
  %cmp.i.i.i6 = icmp eq i64 %12, 1
  br i1 %cmp.i.i.i6, label %if.then.i.i7, label %_ZN9grpc_core13RefCountedPtrINS_10HandshakerEED2Ev.exit10

if.then.i.i7:                                     ; preds = %if.then.i4
  %vtable.i.i.i8 = load ptr, ptr %11, align 8
  %vfn.i.i.i9 = getelementptr inbounds i8, ptr %vtable.i.i.i8, i64 8
  %13 = load ptr, ptr %vfn.i.i.i9, align 8
  call void %13(ptr noundef nonnull align 8 dereferenceable(16) %11) #21
  br label %_ZN9grpc_core13RefCountedPtrINS_10HandshakerEED2Ev.exit10

_ZN9grpc_core13RefCountedPtrINS_10HandshakerEED2Ev.exit10: ; preds = %lpad, %if.then.i4, %if.then.i.i7
  resume { ptr, i32 } %10
}